Certificate:
    Data:
        Version: 3 (0x2)
        Serial Number: 4 (0x4)
        Signature Algorithm: sha1WithRSAEncryption
        Issuer: C=US, ST=DC, L=Washington, O=benpence.com, CN=vpn.benpence.com/name=Ben Pence/emailAddress=email@benpence.com
        Validity
            Not Before: Oct 30 23:03:05 2011 GMT
            Not After : Oct 27 23:03:05 2021 GMT
        Subject: C=US, ST=DC, L=Washington, O=benpence.com, CN=hipsteria/name=Ben Pence/emailAddress=email@benpence.com
        Subject Public Key Info:
            Public Key Algorithm: rsaEncryption
                Public-Key: (1024 bit)
                Modulus:
                    00:de:5e:5a:e7:3f:ca:86:e2:d2:69:e0:d4:e8:b0:
                    8c:86:17:44:e9:8a:78:12:fb:26:dc:63:7f:04:ab:
                    4a:cc:ff:81:25:56:08:04:56:c9:2b:2d:2a:68:20:
                    96:42:e2:e7:eb:bf:70:de:bb:35:a0:28:6f:e1:3b:
                    48:fb:9a:08:d5:d4:a5:01:93:bb:55:b9:17:4b:e0:
                    54:55:14:a9:bb:d3:1c:b0:05:39:4a:4d:3a:58:ed:
                    38:d0:f0:4a:ec:84:82:63:f1:28:4c:0f:d0:17:c4:
                    a5:5b:a8:18:e3:2b:9d:f0:2e:68:c7:98:77:dd:5c:
                    19:54:b6:5f:91:e5:92:51:33
                Exponent: 65537 (0x10001)
        X509v3 extensions:
            X509v3 Basic Constraints: 
                CA:FALSE
            Netscape Comment: 
                Easy-RSA Generated Certificate
            X509v3 Subject Key Identifier: 
                82:FA:9F:EC:88:5A:83:D0:4F:A0:BA:9D:A4:02:61:B2:8F:3F:FB:F5
            X509v3 Authority Key Identifier: 
                keyid:B0:CB:DF:7E:C7:14:F4:6F:C2:3C:33:88:08:3B:D3:C7:22:8D:8F:78
                DirName:/C=US/ST=DC/L=Washington/O=benpence.com/CN=vpn.benpence.com/name=Ben Pence/emailAddress=email@benpence.com
                serial:99:91:CE:63:D2:BA:3B:07

            X509v3 Extended Key Usage: 
                TLS Web Client Authentication
            X509v3 Key Usage: 
                Digital Signature
    Signature Algorithm: sha1WithRSAEncryption
        79:79:1a:0f:8f:93:49:83:30:57:1f:71:5f:8e:d9:f3:15:1b:
        d7:ee:79:5e:7c:78:7e:0a:b9:2f:20:cf:c7:a9:63:71:3c:0e:
        bd:bd:35:a2:b8:94:9b:3c:2b:2f:3c:2a:17:fe:99:a0:36:8e:
        10:ad:8c:13:34:07:cf:a4:73:f9:ea:78:c9:17:f3:57:19:26:
        03:0c:e7:a2:32:d8:d9:28:33:c0:cf:19:97:72:56:c1:50:92:
        a6:54:9e:64:70:98:58:40:a6:ec:b5:c3:14:01:5d:9d:fb:2a:
        ca:a9:75:44:d8:fd:c0:5d:e7:f0:59:70:03:8b:9b:48:0f:20:
        22:c2
-----BEGIN CERTIFICATE-----
MIID8jCCA1ugAwIBAgIBBDANBgkqhkiG9w0BAQUFADCBmDELMAkGA1UEBhMCVVMx
CzAJBgNVBAgTAkRDMRMwEQYDVQQHEwpXYXNoaW5ndG9uMRUwEwYDVQQKEwxiZW5w
ZW5jZS5jb20xGTAXBgNVBAMTEHZwbi5iZW5wZW5jZS5jb20xEjAQBgNVBCkTCUJl
biBQZW5jZTEhMB8GCSqGSIb3DQEJARYSZW1haWxAYmVucGVuY2UuY29tMB4XDTEx
MTAzMDIzMDMwNVoXDTIxMTAyNzIzMDMwNVowgZExCzAJBgNVBAYTAlVTMQswCQYD
VQQIEwJEQzETMBEGA1UEBxMKV2FzaGluZ3RvbjEVMBMGA1UEChMMYmVucGVuY2Uu
Y29tMRIwEAYDVQQDEwloaXBzdGVyaWExEjAQBgNVBCkTCUJlbiBQZW5jZTEhMB8G
CSqGSIb3DQEJARYSZW1haWxAYmVucGVuY2UuY29tMIGfMA0GCSqGSIb3DQEBAQUA
A4GNADCBiQKBgQDeXlrnP8qG4tJp4NTosIyGF0TpingS+ybcY38Eq0rM/4ElVggE
VskrLSpoIJZC4ufrv3DeuzWgKG/hO0j7mgjV1KUBk7tVuRdL4FRVFKm70xywBTlK
TTpY7TjQ8ErshIJj8ShMD9AXxKVbqBjjK53wLmjHmHfdXBlUtl+R5ZJRMwIDAQAB
o4IBTzCCAUswCQYDVR0TBAIwADAtBglghkgBhvhCAQ0EIBYeRWFzeS1SU0EgR2Vu
ZXJhdGVkIENlcnRpZmljYXRlMB0GA1UdDgQWBBSC+p/siFqD0E+gup2kAmGyjz/7
9TCBzQYDVR0jBIHFMIHCgBSwy99+xxT0b8I8M4gIO9PHIo2PeKGBnqSBmzCBmDEL
MAkGA1UEBhMCVVMxCzAJBgNVBAgTAkRDMRMwEQYDVQQHEwpXYXNoaW5ndG9uMRUw
EwYDVQQKEwxiZW5wZW5jZS5jb20xGTAXBgNVBAMTEHZwbi5iZW5wZW5jZS5jb20x
EjAQBgNVBCkTCUJlbiBQZW5jZTEhMB8GCSqGSIb3DQEJARYSZW1haWxAYmVucGVu
Y2UuY29tggkAmZHOY9K6OwcwEwYDVR0lBAwwCgYIKwYBBQUHAwIwCwYDVR0PBAQD
AgeAMA0GCSqGSIb3DQEBBQUAA4GBAHl5Gg+Pk0mDMFcfcV+O2fMVG9fueV58eH4K
uS8gz8epY3E8Dr29NaK4lJs8Ky88Khf+maA2jhCtjBM0B8+kc/nqeMkX81cZJgMM
56Iy2NkoM8DPGZdyVsFQkqZUnmRwmFhApuy1wxQBXZ37KsqpdUTY/cBd5/BZcAOL
m0gPICLC
-----END CERTIFICATE-----
