Certificate:
    Data:
        Version: 3 (0x2)
        Serial Number: 2 (0x2)
        Signature Algorithm: sha1WithRSAEncryption
        Issuer: C=US, ST=DC, L=Washington, O=benpence.com, CN=vpn.benpence.com/name=Ben Pence/emailAddress=email@benpence.com
        Validity
            Not Before: Oct 30 23:02:14 2011 GMT
            Not After : Oct 27 23:02:14 2021 GMT
        Subject: C=US, ST=DC, L=Washington, O=benpence.com, CN=iBen/name=Ben Pence/emailAddress=email@benpence.com
        Subject Public Key Info:
            Public Key Algorithm: rsaEncryption
                Public-Key: (1024 bit)
                Modulus:
                    00:e9:47:f1:fa:34:8d:d0:e5:89:dc:42:81:11:93:
                    12:32:fd:19:4e:b2:b0:c2:ee:9c:8c:a1:1a:97:f6:
                    0c:4a:46:50:68:6c:7b:53:5c:8b:28:b1:1e:69:e7:
                    43:2d:36:95:db:2e:04:2c:62:1d:5d:dc:0a:2c:dc:
                    62:a6:a3:18:58:3a:95:22:a5:e6:e7:bd:5a:c5:72:
                    36:58:7a:6f:cf:c0:76:49:41:42:be:f9:ec:d3:d9:
                    e6:4c:4e:6e:34:f6:c9:40:02:4d:60:2c:29:c1:08:
                    de:cc:f1:20:d9:5a:c9:33:d0:24:c9:62:38:ec:31:
                    ba:24:b9:12:a2:bf:b4:3d:bb
                Exponent: 65537 (0x10001)
        X509v3 extensions:
            X509v3 Basic Constraints: 
                CA:FALSE
            Netscape Comment: 
                Easy-RSA Generated Certificate
            X509v3 Subject Key Identifier: 
                9F:89:16:DD:68:8B:9E:A8:BC:0A:B4:59:54:BC:AF:35:08:43:24:01
            X509v3 Authority Key Identifier: 
                keyid:B0:CB:DF:7E:C7:14:F4:6F:C2:3C:33:88:08:3B:D3:C7:22:8D:8F:78
                DirName:/C=US/ST=DC/L=Washington/O=benpence.com/CN=vpn.benpence.com/name=Ben Pence/emailAddress=email@benpence.com
                serial:99:91:CE:63:D2:BA:3B:07

            X509v3 Extended Key Usage: 
                TLS Web Client Authentication
            X509v3 Key Usage: 
                Digital Signature
    Signature Algorithm: sha1WithRSAEncryption
        51:10:3e:6a:c8:f7:c0:96:54:98:de:96:32:72:40:ff:c3:6a:
        a4:28:0d:dd:5d:5b:98:de:53:34:51:59:83:c4:1b:ee:2b:2c:
        05:2d:eb:15:57:3b:d1:7e:48:18:3e:d1:20:01:81:dc:dc:6b:
        1d:ab:4a:21:62:de:7e:55:6a:8e:9c:a6:e5:8a:b0:8f:82:3a:
        44:1c:f7:e7:9b:8c:19:0f:d7:5f:4e:e2:19:fa:35:f3:4b:52:
        ef:54:50:0f:09:24:98:84:7d:51:24:2d:4c:3c:e3:3f:76:57:
        41:84:68:6c:81:cd:35:69:fc:aa:3f:1f:91:ac:5c:e2:c2:15:
        66:00
-----BEGIN CERTIFICATE-----
MIID7TCCA1agAwIBAgIBAjANBgkqhkiG9w0BAQUFADCBmDELMAkGA1UEBhMCVVMx
CzAJBgNVBAgTAkRDMRMwEQYDVQQHEwpXYXNoaW5ndG9uMRUwEwYDVQQKEwxiZW5w
ZW5jZS5jb20xGTAXBgNVBAMTEHZwbi5iZW5wZW5jZS5jb20xEjAQBgNVBCkTCUJl
biBQZW5jZTEhMB8GCSqGSIb3DQEJARYSZW1haWxAYmVucGVuY2UuY29tMB4XDTEx
MTAzMDIzMDIxNFoXDTIxMTAyNzIzMDIxNFowgYwxCzAJBgNVBAYTAlVTMQswCQYD
VQQIEwJEQzETMBEGA1UEBxMKV2FzaGluZ3RvbjEVMBMGA1UEChMMYmVucGVuY2Uu
Y29tMQ0wCwYDVQQDEwRpQmVuMRIwEAYDVQQpEwlCZW4gUGVuY2UxITAfBgkqhkiG
9w0BCQEWEmVtYWlsQGJlbnBlbmNlLmNvbTCBnzANBgkqhkiG9w0BAQEFAAOBjQAw
gYkCgYEA6Ufx+jSN0OWJ3EKBEZMSMv0ZTrKwwu6cjKEal/YMSkZQaGx7U1yLKLEe
aedDLTaV2y4ELGIdXdwKLNxipqMYWDqVIqXm571axXI2WHpvz8B2SUFCvvns09nm
TE5uNPbJQAJNYCwpwQjezPEg2VrJM9AkyWI47DG6JLkSor+0PbsCAwEAAaOCAU8w
ggFLMAkGA1UdEwQCMAAwLQYJYIZIAYb4QgENBCAWHkVhc3ktUlNBIEdlbmVyYXRl
ZCBDZXJ0aWZpY2F0ZTAdBgNVHQ4EFgQUn4kW3WiLnqi8CrRZVLyvNQhDJAEwgc0G
A1UdIwSBxTCBwoAUsMvffscU9G/CPDOICDvTxyKNj3ihgZ6kgZswgZgxCzAJBgNV
BAYTAlVTMQswCQYDVQQIEwJEQzETMBEGA1UEBxMKV2FzaGluZ3RvbjEVMBMGA1UE
ChMMYmVucGVuY2UuY29tMRkwFwYDVQQDExB2cG4uYmVucGVuY2UuY29tMRIwEAYD
VQQpEwlCZW4gUGVuY2UxITAfBgkqhkiG9w0BCQEWEmVtYWlsQGJlbnBlbmNlLmNv
bYIJAJmRzmPSujsHMBMGA1UdJQQMMAoGCCsGAQUFBwMCMAsGA1UdDwQEAwIHgDAN
BgkqhkiG9w0BAQUFAAOBgQBRED5qyPfAllSY3pYyckD/w2qkKA3dXVuY3lM0UVmD
xBvuKywFLesVVzvRfkgYPtEgAYHc3Gsdq0ohYt5+VWqOnKblirCPgjpEHPfnm4wZ
D9dfTuIZ+jXzS1LvVFAPCSSYhH1RJC1MPOM/dldBhGhsgc01afyqPx+RrFziwhVm
AA==
-----END CERTIFICATE-----
